target datalayout = "e-m:e-p270:32:32-p271:32:32-p272:64:64-i64:64-i128:128-f80:128-n8:16:32:64-S128"
target triple = "x86_64-pc-linux-gnu"

%"struct.llvm::DILineInfo" = type <{ %"class.std::__cxx11::basic_string", %"class.std::__cxx11::basic_string", %"class.std::__cxx11::basic_string", %"class.std::optional", %"class.std::optional", i32, i32, i32, [4 x i8], %"class.std::optional.0", i32, i8, [3 x i8] }>
%"class.std::__cxx11::basic_string" = type { %"struct.std::__cxx11::basic_string<char>::_Alloc_hider", i64, %union.anon }
%"struct.std::__cxx11::basic_string<char>::_Alloc_hider" = type { ptr }
%union.anon = type { i64, [8 x i8] }
%"class.std::optional" = type { %"struct.std::_Optional_base" }
%"struct.std::_Optional_base" = type { %"struct.std::_Optional_payload" }
%"struct.std::_Optional_payload" = type { %"struct.std::_Optional_payload_base.base", [7 x i8] }
%"struct.std::_Optional_payload_base.base" = type <{ %"union.std::_Optional_payload_base<llvm::StringRef>::_Storage", i8 }>
%"union.std::_Optional_payload_base<llvm::StringRef>::_Storage" = type { %"class.llvm::StringRef" }
%"class.llvm::StringRef" = type { ptr, i64 }
%"class.std::optional.0" = type { %"struct.std::_Optional_base.1" }
%"struct.std::_Optional_base.1" = type { %"struct.std::_Optional_payload.3" }
%"struct.std::_Optional_payload.3" = type { %"struct.std::_Optional_payload_base.base.5", [7 x i8] }
%"struct.std::_Optional_payload_base.base.5" = type <{ %"union.std::_Optional_payload_base<unsigned long>::_Storage", i8 }>
%"union.std::_Optional_payload_base<unsigned long>::_Storage" = type { i64 }
%"struct.llvm::object::SectionedAddress" = type { i64, i64 }
%"struct.llvm::DILineInfoSpecifier" = type <{ i32, i32, i8, [3 x i8] }>
%"class.llvm::BTFContext" = type { %"class.llvm::DIContext.base", %"class.llvm::BTFParser" }
%"class.llvm::DIContext.base" = type <{ ptr, i32 }>
%"class.llvm::BTFParser" = type { %"class.llvm::StringRef", %"class.llvm::OwningArrayRef", %"class.llvm::DenseMap", %"class.llvm::DenseMap.8", %"class.std::vector" }
%"class.llvm::OwningArrayRef" = type { %"class.llvm::MutableArrayRef" }
%"class.llvm::MutableArrayRef" = type { %"class.llvm::ArrayRef" }
%"class.llvm::ArrayRef" = type { ptr, i64 }
%"class.llvm::DenseMap" = type <{ ptr, i32, i32, i32, [4 x i8] }>
%"class.llvm::DenseMap.8" = type <{ ptr, i32, i32, i32, [4 x i8] }>
%"class.std::vector" = type { %"struct.std::_Vector_base" }
%"struct.std::_Vector_base" = type { %"struct.std::_Vector_base<const llvm::BTF::CommonType *, std::allocator<const llvm::BTF::CommonType *>>::_Vector_impl" }
%"struct.std::_Vector_base<const llvm::BTF::CommonType *, std::allocator<const llvm::BTF::CommonType *>>::_Vector_impl" = type { %"struct.std::_Vector_base<const llvm::BTF::CommonType *, std::allocator<const llvm::BTF::CommonType *>>::_Vector_impl_data" }
%"struct.std::_Vector_base<const llvm::BTF::CommonType *, std::allocator<const llvm::BTF::CommonType *>>::_Vector_impl_data" = type { ptr, ptr, ptr }
%"struct.llvm::BTF::BPFLineInfo" = type { i32, i32, i32, i32 }
%"struct.std::_Optional_payload_base" = type <{ %"union.std::_Optional_payload_base<llvm::StringRef>::_Storage", i8, [7 x i8] }>
%"class.std::basic_string_view" = type { i64, ptr }

; Function Attrs: mustprogress nounwind uwtable
define linkonce_odr hidden void @_ZNSt17basic_string_viewIcSt11char_traitsIcEEC2EPKcm(ptr noundef nonnull align 8 dereferenceable(16) %0, ptr noundef %1, i64 noundef %2) unnamed_addr #0 comdat align 2 {
  %4 = alloca ptr, align 8
  %5 = alloca ptr, align 8
  %6 = alloca i64, align 8
  store ptr %0, ptr %4, align 8
  store ptr %1, ptr %5, align 8
  store i64 %2, ptr %6, align 8
  %7 = load ptr, ptr %4, align 8
  %8 = getelementptr inbounds nuw %"class.std::basic_string_view", ptr %7, i32 0, i32 0
  %9 = load i64, ptr %6, align 8
  store i64 %9, ptr %8, align 8
  %10 = getelementptr inbounds nuw %"class.std::basic_string_view", ptr %7, i32 0, i32 1
  %11 = load ptr, ptr %5, align 8
  store ptr %11, ptr %10, align 8
  ret void
}

; Function Attrs: mustprogress nounwind uwtable
define linkonce_odr hidden noundef i64 @_ZNK4llvm9StringRef4sizeEv(ptr noundef nonnull align 8 dereferenceable(16) %0) #0 comdat align 2 {
  %2 = alloca ptr, align 8
  store ptr %0, ptr %2, align 8
  %3 = load ptr, ptr %2, align 8
  %4 = getelementptr inbounds nuw %"class.llvm::StringRef", ptr %3, i32 0, i32 1
  %5 = load i64, ptr %4, align 8
  ret i64 %5
}

; Function Attrs: mustprogress nounwind uwtable
define linkonce_odr hidden noundef ptr @_ZNK4llvm9StringRef4dataEv(ptr noundef nonnull align 8 dereferenceable(16) %0) #0 comdat align 2 {
  %2 = alloca ptr, align 8
  store ptr %0, ptr %2, align 8
  %3 = load ptr, ptr %2, align 8
  %4 = getelementptr inbounds nuw %"class.llvm::StringRef", ptr %3, i32 0, i32 0
  %5 = load ptr, ptr %4, align 8
  ret ptr %5
}

; Function Attrs: mustprogress nounwind uwtable
define linkonce_odr void @_ZSt10_ConstructIN4llvm9StringRefEJS1_EEvPT_DpOT0_(ptr noundef %0, ptr noundef nonnull align 8 dereferenceable(16) %1) #0 comdat {
  %3 = alloca ptr, align 8
  %4 = alloca ptr, align 8
  store ptr %0, ptr %3, align 8
  store ptr %1, ptr %4, align 8
  %5 = load ptr, ptr %3, align 8
  %6 = load ptr, ptr %4, align 8
  call void @llvm.memcpy.p0.p0.i64(ptr align 8 %5, ptr align 8 %6, i64 16, i1 false)
  ret void
}

; Function Attrs: mustprogress nounwind uwtable
define linkonce_odr hidden noundef i64 @_ZNKSt17basic_string_viewIcSt11char_traitsIcEE4sizeEv(ptr noundef nonnull align 8 dereferenceable(16) %0) #0 comdat align 2 {
  %2 = alloca ptr, align 8
  store ptr %0, ptr %2, align 8
  %3 = load ptr, ptr %2, align 8
  %4 = getelementptr inbounds nuw %"class.std::basic_string_view", ptr %3, i32 0, i32 0
  %5 = load i64, ptr %4, align 8
  ret i64 %5
}

; Function Attrs: mustprogress nounwind uwtable
define linkonce_odr hidden noundef ptr @_ZNKSt17basic_string_viewIcSt11char_traitsIcEE4dataEv(ptr noundef nonnull align 8 dereferenceable(16) %0) #0 comdat align 2 {
  %2 = alloca ptr, align 8
  store ptr %0, ptr %2, align 8
  %3 = load ptr, ptr %2, align 8
  %4 = getelementptr inbounds nuw %"class.std::basic_string_view", ptr %3, i32 0, i32 1
  %5 = load ptr, ptr %4, align 8
  ret ptr %5
}

; Function Attrs: mustprogress nounwind uwtable
define linkonce_odr hidden { i64, ptr } @_ZNK4llvm9StringRefcvSt17basic_string_viewIcSt11char_traitsIcEEEv(ptr noundef nonnull align 8 dereferenceable(16) %0) #0 comdat align 2 {
  %2 = alloca %"class.std::basic_string_view", align 8
  %3 = alloca ptr, align 8
  store ptr %0, ptr %3, align 8
  %4 = load ptr, ptr %3, align 8
  %5 = call noundef ptr @_ZNK4llvm9StringRef4dataEv(ptr noundef nonnull align 8 dereferenceable(16) %4)
  %6 = call noundef i64 @_ZNK4llvm9StringRef4sizeEv(ptr noundef nonnull align 8 dereferenceable(16) %4)
  call void @_ZNSt17basic_string_viewIcSt11char_traitsIcEEC2EPKcm(ptr noundef nonnull align 8 dereferenceable(16) %2, ptr noundef %5, i64 noundef %6) #9
  %7 = load { i64, ptr }, ptr %2, align 8
  ret { i64, ptr } %7
}

; Function Attrs: mustprogress nounwind uwtable
define linkonce_odr hidden void @_ZNSt22_Optional_payload_baseIN4llvm9StringRefEE12_M_constructIJS1_EEEvDpOT_(ptr noundef nonnull align 8 dereferenceable(17) %0, ptr noundef nonnull align 8 dereferenceable(16) %1) #0 comdat align 2 {
  %3 = alloca ptr, align 8
  %4 = alloca ptr, align 8
  store ptr %0, ptr %3, align 8
  store ptr %1, ptr %4, align 8
  %5 = load ptr, ptr %3, align 8
  %6 = getelementptr inbounds nuw %"struct.std::_Optional_payload_base", ptr %5, i32 0, i32 0
  %7 = load ptr, ptr %4, align 8
  call void @_ZSt10_ConstructIN4llvm9StringRefEJS1_EEvPT_DpOT0_(ptr noundef %6, ptr noundef nonnull align 8 dereferenceable(16) %7)
  %8 = getelementptr inbounds nuw %"struct.std::_Optional_payload_base", ptr %5, i32 0, i32 1
  store i8 1, ptr %8, align 8
  ret void
}

; Function Attrs: mustprogress nounwind uwtable
define linkonce_odr hidden noundef nonnull align 8 dereferenceable(16) ptr @_ZNSt22_Optional_payload_baseIN4llvm9StringRefEE6_M_getEv(ptr noundef nonnull align 8 dereferenceable(17) %0) #0 comdat align 2 {
  %2 = alloca ptr, align 8
  store ptr %0, ptr %2, align 8
  %3 = load ptr, ptr %2, align 8
  %4 = getelementptr inbounds nuw %"struct.std::_Optional_payload_base", ptr %3, i32 0, i32 0
  ret ptr %4
}

; Function Attrs: mustprogress nounwind uwtable
define linkonce_odr hidden noundef nonnull align 8 dereferenceable(32) ptr @_ZNSt7__cxx1112basic_stringIcSt11char_traitsIcESaIcEE6assignIN4llvm9StringRefEEENSt9enable_ifIXsr6__and_ISt14is_convertibleIRKT_St17basic_string_viewIcS2_EESt6__not_IS9_IPSB_PKS4_EESG_IS9_ISC_PKcEEEE5valueERS4_E4typeESC_(ptr noundef nonnull align 8 dereferenceable(32) %0, ptr noundef nonnull align 8 dereferenceable(16) %1) #0 comdat align 2 {
  %3 = alloca ptr, align 8
  %4 = alloca ptr, align 8
  %5 = alloca %"class.std::basic_string_view", align 8
  store ptr %0, ptr %3, align 8
  store ptr %1, ptr %4, align 8
  %6 = load ptr, ptr %3, align 8
  %7 = load ptr, ptr %4, align 8
  %8 = call { i64, ptr } @_ZNK4llvm9StringRefcvSt17basic_string_viewIcSt11char_traitsIcEEEv(ptr noundef nonnull align 8 dereferenceable(16) %7)
  %9 = getelementptr inbounds nuw { i64, ptr }, ptr %5, i32 0, i32 0
  %10 = extractvalue { i64, ptr } %8, 0
  store i64 %10, ptr %9, align 8
  %11 = getelementptr inbounds nuw { i64, ptr }, ptr %5, i32 0, i32 1
  %12 = extractvalue { i64, ptr } %8, 1
  store ptr %12, ptr %11, align 8
  %13 = call noundef ptr @_ZNKSt17basic_string_viewIcSt11char_traitsIcEE4dataEv(ptr noundef nonnull align 8 dereferenceable(16) %5) #9
  %14 = call noundef i64 @_ZNKSt17basic_string_viewIcSt11char_traitsIcEE4sizeEv(ptr noundef nonnull align 8 dereferenceable(16) %5) #9
  %15 = call noundef nonnull align 8 dereferenceable(32) ptr @_ZNSt7__cxx1112basic_stringIcSt11char_traitsIcESaIcEE6assignEPKcm(ptr noundef nonnull align 8 dereferenceable(32) %6, ptr noundef %13, i64 noundef %14)
  ret ptr %15
}

; Function Attrs: mustprogress nounwind uwtable
define linkonce_odr hidden void @_ZNSt19_Optional_base_implIN4llvm9StringRefESt14_Optional_baseIS1_Lb1ELb1EEE12_M_constructIJS1_EEEvDpOT_(ptr noundef nonnull align 1 dereferenceable(1) %0, ptr noundef nonnull align 8 dereferenceable(16) %1) #0 comdat align 2 {
  %3 = alloca ptr, align 8
  %4 = alloca ptr, align 8
  store ptr %0, ptr %3, align 8
  store ptr %1, ptr %4, align 8
  %5 = load ptr, ptr %3, align 8
  %6 = getelementptr inbounds nuw %"struct.std::_Optional_base", ptr %5, i32 0, i32 0
  %7 = load ptr, ptr %4, align 8
  call void @_ZNSt22_Optional_payload_baseIN4llvm9StringRefEE12_M_constructIJS1_EEEvDpOT_(ptr noundef nonnull align 8 dereferenceable(17) %6, ptr noundef nonnull align 8 dereferenceable(16) %7) #9
  ret void
}

; Function Attrs: mustprogress nounwind uwtable
define linkonce_odr hidden noundef nonnull align 8 dereferenceable(16) ptr @_ZNSt19_Optional_base_implIN4llvm9StringRefESt14_Optional_baseIS1_Lb1ELb1EEE6_M_getEv(ptr noundef nonnull align 1 dereferenceable(1) %0) #0 comdat align 2 {
  %2 = alloca ptr, align 8
  store ptr %0, ptr %2, align 8
  %3 = load ptr, ptr %2, align 8
  br label %4

4:                                                ; preds = %1
  br label %5

5:                                                ; preds = %4
  %6 = getelementptr inbounds nuw %"struct.std::_Optional_base", ptr %3, i32 0, i32 0
  %7 = call noundef nonnull align 8 dereferenceable(16) ptr @_ZNSt22_Optional_payload_baseIN4llvm9StringRefEE6_M_getEv(ptr noundef nonnull align 8 dereferenceable(17) %6) #9
  ret ptr %7
}

; Function Attrs: mustprogress nounwind uwtable
define linkonce_odr hidden noundef zeroext i1 @_ZNKSt19_Optional_base_implIN4llvm9StringRefESt14_Optional_baseIS1_Lb1ELb1EEE13_M_is_engagedEv(ptr noundef nonnull align 1 dereferenceable(1) %0) #0 comdat align 2 {
  %2 = alloca ptr, align 8
  store ptr %0, ptr %2, align 8
  %3 = load ptr, ptr %2, align 8
  %4 = getelementptr inbounds nuw %"struct.std::_Optional_base", ptr %3, i32 0, i32 0
  %5 = getelementptr inbounds nuw %"struct.std::_Optional_payload_base", ptr %4, i32 0, i32 1
  %6 = load i8, ptr %5, align 8
  %7 = trunc i8 %6 to i1
  ret i1 %7
}

; Function Attrs: mustprogress nounwind uwtable
define linkonce_odr hidden void @_ZN4llvm10DILineInfoD2Ev(ptr noundef nonnull align 8 dereferenceable(181) %0) unnamed_addr #0 comdat align 2 {
  %2 = alloca ptr, align 8
  store ptr %0, ptr %2, align 8
  %3 = load ptr, ptr %2, align 8
  %4 = getelementptr inbounds nuw %"struct.llvm::DILineInfo", ptr %3, i32 0, i32 2
  call void @_ZNSt7__cxx1112basic_stringIcSt11char_traitsIcESaIcEED1Ev(ptr noundef nonnull align 8 dereferenceable(32) %4) #9
  %5 = getelementptr inbounds nuw %"struct.llvm::DILineInfo", ptr %3, i32 0, i32 1
  call void @_ZNSt7__cxx1112basic_stringIcSt11char_traitsIcESaIcEED1Ev(ptr noundef nonnull align 8 dereferenceable(32) %5) #9
  %6 = getelementptr inbounds nuw %"struct.llvm::DILineInfo", ptr %3, i32 0, i32 0
  call void @_ZNSt7__cxx1112basic_stringIcSt11char_traitsIcESaIcEED1Ev(ptr noundef nonnull align 8 dereferenceable(32) %6) #9
  ret void
}

; Function Attrs: mustprogress nounwind uwtable
define linkonce_odr hidden noundef i32 @_ZNK4llvm3BTF11BPFLineInfo6getColEv(ptr noundef nonnull align 4 dereferenceable(16) %0) #0 comdat align 2 {
  %2 = alloca ptr, align 8
  store ptr %0, ptr %2, align 8
  %3 = load ptr, ptr %2, align 8
  %4 = getelementptr inbounds nuw %"struct.llvm::BTF::BPFLineInfo", ptr %3, i32 0, i32 3
  %5 = load i32, ptr %4, align 4
  %6 = and i32 %5, 1023
  ret i32 %6
}

; Function Attrs: mustprogress nounwind uwtable
define linkonce_odr hidden noundef i32 @_ZNK4llvm3BTF11BPFLineInfo7getLineEv(ptr noundef nonnull align 4 dereferenceable(16) %0) #0 comdat align 2 {
  %2 = alloca ptr, align 8
  store ptr %0, ptr %2, align 8
  %3 = load ptr, ptr %2, align 8
  %4 = getelementptr inbounds nuw %"struct.llvm::BTF::BPFLineInfo", ptr %3, i32 0, i32 3
  %5 = load i32, ptr %4, align 4
  %6 = lshr i32 %5, 10
  ret i32 %6
}

; Function Attrs: mustprogress nounwind uwtable
define linkonce_odr hidden noundef nonnull align 8 dereferenceable(32) ptr @_ZNSt7__cxx1112basic_stringIcSt11char_traitsIcESaIcEEaSIN4llvm9StringRefEEENSt9enable_ifIXsr6__and_ISt14is_convertibleIRKT_St17basic_string_viewIcS2_EESt6__not_IS9_IPSB_PKS4_EESG_IS9_ISC_PKcEEEE5valueERS4_E4typeESC_(ptr noundef nonnull align 8 dereferenceable(32) %0, ptr noundef nonnull align 8 dereferenceable(16) %1) #0 comdat align 2 {
  %3 = alloca ptr, align 8
  %4 = alloca ptr, align 8
  store ptr %0, ptr %3, align 8
  store ptr %1, ptr %4, align 8
  %5 = load ptr, ptr %3, align 8
  %6 = load ptr, ptr %4, align 8
  %7 = call noundef nonnull align 8 dereferenceable(32) ptr @_ZNSt7__cxx1112basic_stringIcSt11char_traitsIcESaIcEE6assignIN4llvm9StringRefEEENSt9enable_ifIXsr6__and_ISt14is_convertibleIRKT_St17basic_string_viewIcS2_EESt6__not_IS9_IPSB_PKS4_EESG_IS9_ISC_PKcEEEE5valueERS4_E4typeESC_(ptr noundef nonnull align 8 dereferenceable(32) %5, ptr noundef nonnull align 8 dereferenceable(16) %6)
  ret ptr %7
}

; Function Attrs: mustprogress nounwind uwtable
define linkonce_odr hidden noundef nonnull align 8 dereferenceable(24) ptr @_ZNSt8optionalIN4llvm9StringRefEEaSIS1_EENSt9enable_ifIX7__and_vISt6__not_ISt7is_sameIS2_NSt9remove_cvINSt16remove_referenceIT_E4typeEE4typeEEES5_ISt6__and_IJSt9is_scalarIS1_ES6_IS1_NSt5decayIS9_E4typeEEEEESt16is_constructibleIS1_JS9_EESt13is_assignableIRS1_S9_EEERS2_E4typeEOS9_(ptr noundef nonnull align 8 dereferenceable(24) %0, ptr noundef nonnull align 8 dereferenceable(16) %1) #0 comdat align 2 {
  %3 = alloca ptr, align 8
  %4 = alloca ptr, align 8
  store ptr %0, ptr %3, align 8
  store ptr %1, ptr %4, align 8
  %5 = load ptr, ptr %3, align 8
  %6 = call noundef zeroext i1 @_ZNKSt19_Optional_base_implIN4llvm9StringRefESt14_Optional_baseIS1_Lb1ELb1EEE13_M_is_engagedEv(ptr noundef nonnull align 1 dereferenceable(1) %5) #9
  br i1 %6, label %7, label %10

7:                                                ; preds = %2
  %8 = load ptr, ptr %4, align 8
  %9 = call noundef nonnull align 8 dereferenceable(16) ptr @_ZNSt19_Optional_base_implIN4llvm9StringRefESt14_Optional_baseIS1_Lb1ELb1EEE6_M_getEv(ptr noundef nonnull align 1 dereferenceable(1) %5) #9
  call void @llvm.memcpy.p0.p0.i64(ptr align 8 %9, ptr align 8 %8, i64 16, i1 false)
  br label %12

10:                                               ; preds = %2
  %11 = load ptr, ptr %4, align 8
  call void @_ZNSt19_Optional_base_implIN4llvm9StringRefESt14_Optional_baseIS1_Lb1ELb1EEE12_M_constructIJS1_EEEvDpOT_(ptr noundef nonnull align 1 dereferenceable(1) %5, ptr noundef nonnull align 8 dereferenceable(16) %11) #9
  br label %12

12:                                               ; preds = %10, %7
  ret ptr %5
}

; Function Attrs: mustprogress nounwind uwtable
define dso_local void @_ZN4llvm10BTFContext21getLineInfoForAddressENS_6object16SectionedAddressENS_19DILineInfoSpecifierE(ptr dead_on_unwind noalias writable sret(%"struct.llvm::DILineInfo") align 8 %0, ptr noundef nonnull align 8 dereferenceable(120) %1, i64 %2, i64 %3, i64 %4, i8 %5) unnamed_addr #0 align 2 {
  %7 = alloca ptr, align 8
  %8 = alloca %"struct.llvm::object::SectionedAddress", align 8
  %9 = alloca %"struct.llvm::DILineInfoSpecifier", align 4
  %10 = alloca { i64, i8 }, align 4
  %11 = alloca ptr, align 8
  %12 = alloca ptr, align 8
  %13 = alloca %"struct.llvm::object::SectionedAddress", align 8
  %14 = alloca i1, align 1
  %15 = alloca i32, align 4
  %16 = alloca %"class.llvm::StringRef", align 8
  %17 = alloca %"class.llvm::StringRef", align 8
  store ptr %0, ptr %7, align 8
  %18 = getelementptr inbounds nuw { i64, i64 }, ptr %8, i32 0, i32 0
  store i64 %2, ptr %18, align 8
  %19 = getelementptr inbounds nuw { i64, i64 }, ptr %8, i32 0, i32 1
  store i64 %3, ptr %19, align 8
  %20 = getelementptr inbounds nuw { i64, i8 }, ptr %10, i32 0, i32 0
  store i64 %4, ptr %20, align 4
  %21 = getelementptr inbounds nuw { i64, i8 }, ptr %10, i32 0, i32 1
  store i8 %5, ptr %21, align 4
  call void @llvm.memcpy.p0.p0.i64(ptr align 4 %9, ptr align 4 %10, i64 12, i1 false)
  store ptr %1, ptr %11, align 8
  %22 = load ptr, ptr %11, align 8
  %23 = getelementptr inbounds nuw %"class.llvm::BTFContext", ptr %22, i32 0, i32 1
  call void @llvm.memcpy.p0.p0.i64(ptr align 8 %13, ptr align 8 %8, i64 16, i1 false)
  %24 = getelementptr inbounds nuw { i64, i64 }, ptr %13, i32 0, i32 0
  %25 = load i64, ptr %24, align 8
  %26 = getelementptr inbounds nuw { i64, i64 }, ptr %13, i32 0, i32 1
  %27 = load i64, ptr %26, align 8
  %28 = call noundef ptr @_ZNK4llvm9BTFParser12findLineInfoENS_6object16SectionedAddressE(ptr noundef nonnull align 8 dereferenceable(104) %23, i64 %25, i64 %27)
  store ptr %28, ptr %12, align 8
  store i1 false, ptr %14, align 1
  call void @_ZN4llvm10DILineInfoC2Ev(ptr noundef nonnull align 8 dereferenceable(181) %0)
  %29 = load ptr, ptr %12, align 8
  %30 = icmp ne ptr %29, null
  br i1 %30, label %32, label %31

31:                                               ; preds = %6
  store i1 true, ptr %14, align 1
  store i32 1, ptr %15, align 4
  br label %61

32:                                               ; preds = %6
  %33 = getelementptr inbounds nuw %"class.llvm::BTFContext", ptr %22, i32 0, i32 1
  %34 = load ptr, ptr %12, align 8
  %35 = getelementptr inbounds nuw %"struct.llvm::BTF::BPFLineInfo", ptr %34, i32 0, i32 2
  %36 = load i32, ptr %35, align 4
  %37 = call { ptr, i64 } @_ZNK4llvm9BTFParser10findStringEj(ptr noundef nonnull align 8 dereferenceable(104) %33, i32 noundef %36)
  %38 = getelementptr inbounds nuw { ptr, i64 }, ptr %16, i32 0, i32 0
  %39 = extractvalue { ptr, i64 } %37, 0
  store ptr %39, ptr %38, align 8
  %40 = getelementptr inbounds nuw { ptr, i64 }, ptr %16, i32 0, i32 1
  %41 = extractvalue { ptr, i64 } %37, 1
  store i64 %41, ptr %40, align 8
  %42 = getelementptr inbounds nuw %"struct.llvm::DILineInfo", ptr %0, i32 0, i32 4
  %43 = call noundef nonnull align 8 dereferenceable(24) ptr @_ZNSt8optionalIN4llvm9StringRefEEaSIS1_EENSt9enable_ifIX7__and_vISt6__not_ISt7is_sameIS2_NSt9remove_cvINSt16remove_referenceIT_E4typeEE4typeEEES5_ISt6__and_IJSt9is_scalarIS1_ES6_IS1_NSt5decayIS9_E4typeEEEEESt16is_constructibleIS1_JS9_EESt13is_assignableIRS1_S9_EEERS2_E4typeEOS9_(ptr noundef nonnull align 8 dereferenceable(24) %42, ptr noundef nonnull align 8 dereferenceable(16) %16) #9
  %44 = getelementptr inbounds nuw %"class.llvm::BTFContext", ptr %22, i32 0, i32 1
  %45 = load ptr, ptr %12, align 8
  %46 = getelementptr inbounds nuw %"struct.llvm::BTF::BPFLineInfo", ptr %45, i32 0, i32 1
  %47 = load i32, ptr %46, align 4
  %48 = call { ptr, i64 } @_ZNK4llvm9BTFParser10findStringEj(ptr noundef nonnull align 8 dereferenceable(104) %44, i32 noundef %47)
  %49 = getelementptr inbounds nuw { ptr, i64 }, ptr %17, i32 0, i32 0
  %50 = extractvalue { ptr, i64 } %48, 0
  store ptr %50, ptr %49, align 8
  %51 = getelementptr inbounds nuw { ptr, i64 }, ptr %17, i32 0, i32 1
  %52 = extractvalue { ptr, i64 } %48, 1
  store i64 %52, ptr %51, align 8
  %53 = getelementptr inbounds nuw %"struct.llvm::DILineInfo", ptr %0, i32 0, i32 0
  %54 = call noundef nonnull align 8 dereferenceable(32) ptr @_ZNSt7__cxx1112basic_stringIcSt11char_traitsIcESaIcEEaSIN4llvm9StringRefEEENSt9enable_ifIXsr6__and_ISt14is_convertibleIRKT_St17basic_string_viewIcS2_EESt6__not_IS9_IPSB_PKS4_EESG_IS9_ISC_PKcEEEE5valueERS4_E4typeESC_(ptr noundef nonnull align 8 dereferenceable(32) %53, ptr noundef nonnull align 8 dereferenceable(16) %17)
  %55 = load ptr, ptr %12, align 8
  %56 = call noundef i32 @_ZNK4llvm3BTF11BPFLineInfo7getLineEv(ptr noundef nonnull align 4 dereferenceable(16) %55)
  %57 = getelementptr inbounds nuw %"struct.llvm::DILineInfo", ptr %0, i32 0, i32 5
  store i32 %56, ptr %57, align 8
  %58 = load ptr, ptr %12, align 8
  %59 = call noundef i32 @_ZNK4llvm3BTF11BPFLineInfo6getColEv(ptr noundef nonnull align 4 dereferenceable(16) %58)
  %60 = getelementptr inbounds nuw %"struct.llvm::DILineInfo", ptr %0, i32 0, i32 6
  store i32 %59, ptr %60, align 4
  store i1 true, ptr %14, align 1
  store i32 1, ptr %15, align 4
  br label %61

61:                                               ; preds = %32, %31
  %62 = load i1, ptr %14, align 1
  br i1 %62, label %64, label %63

63:                                               ; preds = %61
  call void @_ZN4llvm10DILineInfoD2Ev(ptr noundef nonnull align 8 dereferenceable(181) %0) #9
  br label %64

64:                                               ; preds = %63, %61
  ret void
}