; Function Attrs: mustprogress nounwind uwtable
define dso_local void @_ZN4llvm10BTFContext21getLineInfoForAddressENS_6object16SectionedAddressENS_19DILineInfoSpecifierE(ptr dead_on_unwind noalias writable sret(%"struct.llvm::DILineInfo") align 8 %0, ptr noundef nonnull align 8 dereferenceable(120) %1, i64 %2, i64 %3, i64 %4, i8 %5) unnamed_addr #0 align 2 {
  %7 = getelementptr inbounds nuw i8, ptr %1, i64 16
  %8 = tail call noundef ptr @_ZNK4llvm9BTFParser12findLineInfoENS_6object16SectionedAddressE(ptr noundef nonnull align 8 dereferenceable(104) %7, i64 %2, i64 %3) #10
  tail call void @_ZN4llvm10DILineInfoC2Ev(ptr noundef nonnull align 8 dereferenceable(181) %0)
  %.not = icmp eq ptr %8, null
  br i1 %.not, label %32, label %9

9:                                                ; preds = %6
  %10 = getelementptr inbounds nuw i8, ptr %8, i64 8
  %11 = load i32, ptr %10, align 4
  %12 = tail call { ptr, i64 } @_ZNK4llvm9BTFParser10findStringEj(ptr noundef nonnull align 8 dereferenceable(104) %7, i32 noundef %11) #10
  %13 = extractvalue { ptr, i64 } %12, 0
  %14 = extractvalue { ptr, i64 } %12, 1
  %15 = getelementptr inbounds nuw i8, ptr %0, i64 120
  %16 = getelementptr inbounds i8, ptr %0, i64 136
  %17 = load i8, ptr %16, align 8
  %18 = trunc i8 %17 to i1
  store ptr %13, ptr %15, align 8
  %.sroa.214.0..sroa_idx = getelementptr inbounds i8, ptr %0, i64 128
  store i64 %14, ptr %.sroa.214.0..sroa_idx, align 8
  br i1 %18, label %_ZNSt8optionalIN4llvm9StringRefEEaSIS1_EENSt9enable_ifIX7__and_vISt6__not_ISt7is_sameIS2_NSt9remove_cvINSt16remove_referenceIT_E4typeEE4typeEEES5_ISt6__and_IJSt9is_scalarIS1_ES6_IS1_NSt5decayIS9_E4typeEEEEESt16is_constructibleIS1_JS9_EESt13is_assignableIRS1_S9_EEERS2_E4typeEOS9_.exit, label %19

19:                                               ; preds = %9
  store i8 1, ptr %16, align 8
  br label %_ZNSt8optionalIN4llvm9StringRefEEaSIS1_EENSt9enable_ifIX7__and_vISt6__not_ISt7is_sameIS2_NSt9remove_cvINSt16remove_referenceIT_E4typeEE4typeEEES5_ISt6__and_IJSt9is_scalarIS1_ES6_IS1_NSt5decayIS9_E4typeEEEEESt16is_constructibleIS1_JS9_EESt13is_assignableIRS1_S9_EEERS2_E4typeEOS9_.exit

_ZNSt8optionalIN4llvm9StringRefEEaSIS1_EENSt9enable_ifIX7__and_vISt6__not_ISt7is_sameIS2_NSt9remove_cvINSt16remove_referenceIT_E4typeEE4typeEEES5_ISt6__and_IJSt9is_scalarIS1_ES6_IS1_NSt5decayIS9_E4typeEEEEESt16is_constructibleIS1_JS9_EESt13is_assignableIRS1_S9_EEERS2_E4typeEOS9_.exit: ; preds = %9, %19
  %20 = getelementptr inbounds nuw i8, ptr %8, i64 4
  %21 = load i32, ptr %20, align 4
  %22 = tail call { ptr, i64 } @_ZNK4llvm9BTFParser10findStringEj(ptr noundef nonnull align 8 dereferenceable(104) %7, i32 noundef %21) #10
  %23 = extractvalue { ptr, i64 } %22, 0
  %24 = extractvalue { ptr, i64 } %22, 1
  %25 = tail call noundef nonnull align 8 dereferenceable(32) ptr @_ZNSt7__cxx1112basic_stringIcSt11char_traitsIcESaIcEE6assignEPKcm(ptr noundef nonnull align 8 dereferenceable(32) %0, ptr noundef %23, i64 noundef %24) #10
  %26 = getelementptr inbounds nuw i8, ptr %8, i64 12
  %27 = load i32, ptr %26, align 4
  %28 = lshr i32 %27, 10
  %29 = getelementptr inbounds nuw i8, ptr %0, i64 144
  store i32 %28, ptr %29, align 8
  %30 = and i32 %27, 1023
  %31 = getelementptr inbounds nuw i8, ptr %0, i64 148
  store i32 %30, ptr %31, align 4
  br label %32

32:                                               ; preds = %_ZNSt8optionalIN4llvm9StringRefEEaSIS1_EENSt9enable_ifIX7__and_vISt6__not_ISt7is_sameIS2_NSt9remove_cvINSt16remove_referenceIT_E4typeEE4typeEEES5_ISt6__and_IJSt9is_scalarIS1_ES6_IS1_NSt5decayIS9_E4typeEEEEESt16is_constructibleIS1_JS9_EESt13is_assignableIRS1_S9_EEERS2_E4typeEOS9_.exit, %6
  ret void
}